; Function Attrs: mustprogress null_pointer_is_valid sspstrong uwtable
define void @_ZN15WiresharkDialog18removeTapListenersEv(ptr noundef align 8 dereferenceable_or_null(141) %0) unnamed_addr #0 align 2 personality ptr @__gxx_personality_v0 {
  %2 = getelementptr inbounds nuw i8, ptr %0, i64 112
  %3 = getelementptr inbounds nuw i8, ptr %0, i64 128
  %4 = load i64, ptr %3, align 8
  %5 = icmp eq i64 %4, 0
  br i1 %5, label %._crit_edge, label %.lr.ph

.lr.ph:                                           ; preds = %1
  %6 = getelementptr inbounds nuw i8, ptr %0, i64 120
  br label %7

7:                                                ; preds = %.lr.ph, %_ZN5QListIPvE9takeFirstEv.exit
  %8 = phi i64 [ %4, %.lr.ph ], [ %17, %_ZN5QListIPvE9takeFirstEv.exit ]
  %9 = load ptr, ptr %2, align 8
  %.not.i.i.i.i.i.i = icmp eq ptr %9, null
  br i1 %.not.i.i.i.i.i.i, label %_ZNK17QArrayDataPointerIPvE11needsDetachEv.exit.thread.i.i.i.i.i, label %_ZNK17QArrayDataPointerIPvE11needsDetachEv.exit.i.i.i.i.i

_ZNK17QArrayDataPointerIPvE11needsDetachEv.exit.i.i.i.i.i: ; preds = %7
  %10 = load atomic i32, ptr %9 monotonic, align 4
  %11 = icmp sgt i32 %10, 1
  br i1 %11, label %_ZNK17QArrayDataPointerIPvE11needsDetachEv.exit.thread.i.i.i.i.i, label %_ZN5QListIPvE9takeFirstEv.exit

_ZNK17QArrayDataPointerIPvE11needsDetachEv.exit.thread.i.i.i.i.i: ; preds = %_ZNK17QArrayDataPointerIPvE11needsDetachEv.exit.i.i.i.i.i, %7
  tail call void @_ZN17QArrayDataPointerIPvE17reallocateAndGrowEN10QArrayData14GrowthPositionExPS1_(ptr noundef nonnull align 8 dereferenceable_or_null(24) %2, i32 noundef 0, i64 noundef 0, ptr noundef null)
  %.pre = load i64, ptr %3, align 8
  br label %_ZN5QListIPvE9takeFirstEv.exit

_ZN5QListIPvE9takeFirstEv.exit:                   ; preds = %_ZNK17QArrayDataPointerIPvE11needsDetachEv.exit.i.i.i.i.i, %_ZNK17QArrayDataPointerIPvE11needsDetachEv.exit.thread.i.i.i.i.i
  %12 = phi i64 [ %8, %_ZNK17QArrayDataPointerIPvE11needsDetachEv.exit.i.i.i.i.i ], [ %.pre, %_ZNK17QArrayDataPointerIPvE11needsDetachEv.exit.thread.i.i.i.i.i ]
  %13 = load ptr, ptr %6, align 8
  %14 = load ptr, ptr %13, align 8
  %15 = getelementptr i8, ptr %13, i64 8
  store ptr %15, ptr %6, align 8
  %16 = add i64 %12, -1
  store i64 %16, ptr %3, align 8
  tail call void @remove_tap_listener(ptr noundef %14)
  %17 = load i64, ptr %3, align 8
  %18 = icmp eq i64 %17, 0
  br i1 %18, label %._crit_edge, label %7, !llvm.loop !13

._crit_edge:                                      ; preds = %_ZN5QListIPvE9takeFirstEv.exit, %1
  ret void
}